; Function Attrs: nounwind sspstrong uwtable
define internal i64 @proc_wait2(i32 noundef %0, ptr noundef readonly captures(none) %1, i64 %2) #1 {
  %4 = tail call fastcc i64 @proc_wait(i32 noundef %0, ptr noundef %1)
  %5 = icmp eq i64 %4, 4
  br i1 %5, label %13, label %6

6:                                                ; preds = %3
  %7 = tail call align 8 ptr @llvm.threadlocal.address.p0(ptr align 8 @ruby_current_ec)
  %8 = load ptr, ptr %7, align 8, !tbaa !7
  %9 = getelementptr i8, ptr %8, i64 48
  %.val.i.i = load ptr, ptr %9, align 8, !tbaa !12
  %10 = getelementptr inbounds nuw i8, ptr %.val.i.i, i64 208
  %11 = load i64, ptr %10, align 8, !tbaa !24
  %12 = tail call i64 @rb_assoc_new(i64 noundef %4, i64 noundef %11) #27
  br label %13

13:                                               ; preds = %3, %6
  %.0 = phi i64 [ %12, %6 ], [ 4, %3 ]
  ret i64 %.0
}